Certificate:
    Data:
        Version: 3 (0x2)
        Serial Number: 1 (0x1)
        Signature Algorithm: sha512WithRSAEncryption
        Issuer: CN=ExampleCA
        Validity
            Not Before: Nov  4 15:13:09 2024 GMT
            Not After : Nov  4 15:13:09 2025 GMT
        Subject: C=IT, ST=Lazio, L=Rome, O=CyberITS, CN=localhost
        Subject Public Key Info:
            Public Key Algorithm: rsaEncryption
                Public-Key: (2048 bit)
                Modulus:
                    00:c3:de:0b:9a:d6:83:14:70:05:29:d8:03:fe:27:
                    05:42:1e:fe:17:98:85:97:af:15:4c:2f:63:44:18:
                    f9:79:57:d6:59:c4:f4:be:15:12:7c:04:8a:16:c0:
                    ef:2d:71:44:eb:3b:a9:d9:21:2f:e4:5c:1c:f6:8f:
                    40:ac:bb:66:7f:ae:d4:1a:11:c2:78:69:e4:54:fc:
                    9a:6a:cc:d1:1b:86:65:4b:53:6e:3b:24:b5:c1:f8:
                    a6:00:72:f2:7b:b6:cf:a2:9a:71:f5:ec:55:d5:8e:
                    6b:bb:57:7a:57:74:7f:98:38:72:0c:12:d7:d4:53:
                    be:34:9a:49:1c:ea:71:49:00:1e:45:62:0b:02:bf:
                    2a:34:5a:6b:c5:90:55:d7:39:a7:f1:0b:14:d0:46:
                    50:9b:7a:31:09:55:47:07:af:e2:10:23:cc:e0:5b:
                    14:4c:55:77:59:2f:a4:a8:88:23:02:38:54:25:f9:
                    be:f8:1f:3d:a6:f2:f6:da:6f:f7:5d:f8:9f:0f:f9:
                    9a:c5:c7:ee:d6:c7:ba:42:bd:71:7b:b5:5d:7a:a9:
                    7a:e7:7b:14:65:61:5a:14:20:f2:58:8c:1d:9c:ca:
                    aa:3e:89:7a:8f:69:b6:47:7b:50:7d:c7:63:50:67:
                    7d:88:ee:bb:64:bf:9d:ef:84:3f:4a:06:0a:3f:7b:
                    f8:fd
                Exponent: 65537 (0x10001)
        X509v3 extensions:
            X509v3 Subject Key Identifier: 
                9D:24:D0:8E:2E:B3:60:ED:9E:94:F3:F0:94:01:6D:01:F4:7B:39:57
            X509v3 Basic Constraints: critical
                CA:FALSE
            Netscape Cert Type: 
                SSL Server
            X509v3 Key Usage: 
                Digital Signature, Non Repudiation, Key Encipherment
            X509v3 Extended Key Usage: 
                TLS Web Server Authentication
            X509v3 Subject Alternative Name: 
                DNS:localhost, IP Address:127.0.0.1, IP Address:0:0:0:0:0:0:0:1
            X509v3 Authority Key Identifier: 
                67:A3:90:6A:98:AE:4C:0A:68:92:E3:0C:65:2D:2B:4C:9C:2A:B3:70
    Signature Algorithm: sha512WithRSAEncryption
    Signature Value:
        7a:0f:40:68:9c:22:c7:9f:e2:f7:d3:21:5f:d9:da:7e:de:56:
        44:f4:4a:5c:5b:e5:ed:db:10:1e:d6:bf:dd:ad:b7:b2:aa:27:
        19:2d:e4:73:5e:6e:b9:5e:bc:7f:3a:21:c7:75:a1:7b:62:b5:
        f0:8d:52:58:ba:75:e6:37:dd:f4:cf:87:88:27:ad:23:ca:e2:
        86:9e:1c:6e:e2:70:dc:28:4c:12:3d:37:e3:ea:dc:f3:b8:ab:
        a8:2c:32:e6:0d:f1:68:3f:4b:9d:15:a8:c4:4a:39:51:17:8e:
        83:14:de:67:b3:e8:98:a7:df:e8:26:16:c5:53:7a:2f:6f:3e:
        03:5a:8b:78:e4:dd:ec:43:f2:ce:d6:99:7c:89:78:79:20:01:
        4d:11:75:2c:67:c0:30:1e:25:c1:57:f9:b4:8d:d9:44:a2:20:
        5d:ae:03:32:9c:a8:85:9e:45:24:44:7e:fd:0b:c7:9a:a4:4b:
        e7:26:ad:a7:90:43:22:66:dd:46:3e:39:9f:c8:45:ff:af:a2:
        da:77:7f:70:5a:7d:f1:c4:36:3d:6a:47:f8:f6:94:2e:dd:8e:
        6f:f3:f7:dd:d9:7e:b2:d9:0b:f6:5d:f0:43:f2:de:76:ad:1c:
        c9:e3:57:09:80:36:fb:ee:92:ea:93:69:4f:96:de:6a:1a:e0:
        34:c8:1f:d1
-----BEGIN CERTIFICATE-----
MIIDlzCCAn+gAwIBAgIBATANBgkqhkiG9w0BAQ0FADAUMRIwEAYDVQQDDAlFeGFt
cGxlQ0EwHhcNMjQxMTA0MTUxMzA5WhcNMjUxMTA0MTUxMzA5WjBTMQswCQYDVQQG
EwJJVDEOMAwGA1UECAwFTGF6aW8xDTALBgNVBAcMBFJvbWUxETAPBgNVBAoMCEN5
YmVySVRTMRIwEAYDVQQDDAlsb2NhbGhvc3QwggEiMA0GCSqGSIb3DQEBAQUAA4IB
DwAwggEKAoIBAQDD3gua1oMUcAUp2AP+JwVCHv4XmIWXrxVML2NEGPl5V9ZZxPS+
FRJ8BIoWwO8tcUTrO6nZIS/kXBz2j0Csu2Z/rtQaEcJ4aeRU/JpqzNEbhmVLU247
JLXB+KYAcvJ7ts+imnH17FXVjmu7V3pXdH+YOHIMEtfUU740mkkc6nFJAB5FYgsC
vyo0WmvFkFXXOafxCxTQRlCbejEJVUcHr+IQI8zgWxRMVXdZL6SoiCMCOFQl+b74
Hz2m8vbab/dd+J8P+ZrFx+7Wx7pCvXF7tV16qXrnexRlYVoUIPJYjB2cyqo+iXqP
abZHe1B9x2NQZ32I7rtkv53vhD9KBgo/e/j9AgMBAAGjgbQwgbEwHQYDVR0OBBYE
FJ0k0I4us2DtnpTz8JQBbQH0ezlXMAwGA1UdEwEB/wQCMAAwEQYJYIZIAYb4QgEB
BAQDAgZAMAsGA1UdDwQEAwIF4DATBgNVHSUEDDAKBggrBgEFBQcDATAsBgNVHREE
JTAjgglsb2NhbGhvc3SHBH8AAAGHEAAAAAAAAAAAAAAAAAAAAAEwHwYDVR0jBBgw
FoAUZ6OQapiuTApokuMMZS0rTJwqs3AwDQYJKoZIhvcNAQENBQADggEBAHoPQGic
Isef4vfTIV/Z2n7eVkT0Slxb5e3bEB7Wv92tt7KqJxkt5HNebrlevH86Icd1oXti
tfCNUli6deY33fTPh4gnrSPK4oaeHG7icNwoTBI9N+Pq3PO4q6gsMuYN8Wg/S50V
qMRKOVEXjoMU3mez6Jin3+gmFsVTei9vPgNai3jk3exD8s7WmXyJeHkgAU0RdSxn
wDAeJcFX+bSN2USiIF2uAzKcqIWeRSREfv0Lx5qkS+cmraeQQyJm3UY+OZ/IRf+v
otp3f3BaffHENj1qR/j2lC7djm/z993ZfrLZC/Zd8EPy3natHMnjVwmANvvukuqT
aU+W3moa4DTIH9E=
-----END CERTIFICATE-----
